(dp0
S'hps'
p1
(dp2
S'memoryFreeKb'
p3
I330200
sS'cpuClockSpeed'
p4
I0
sS'upTime'
p5
I3102485
sS'oneMinLoad'
p6
I1
sS'memoryTotalKb'
p7
I763048
ssS'sensorId'
p8
S'fed_esc_026'
p9
sS'i2c'
p10
(dp11
S'compassChange'
p12
I0
sS'temperature'
p13
F110.077087
sS'humidity'
p14
F28.479004
sS'compass_x_axis'
p15
I-208
sS'compass_y_axis'
p16
I1468
sS'compass_z_axis'
p17
I1693
ssS'bandIndex'
p18
I0
sS'bandInfo'
p19
(dp20
S'adiSettings'
p21
(dp22
S'adiTxAttenutation'
p23
I88000
sS'adiTxClockHz'
p24
I49151999
sS'adiRxClockHz'
p25
I49151999
sS'adiTxLoHz'
p26
I3571503998
sS'adiGainValue'
p27
I36
sS'adiRxLoHz'
p28
I3571503998
ssS'sensor'
p29
(dp30
S'noiseRssiDbm'
p31
F-82.438484
sS'rmsAverage'
p32
F2.44949
sS'gpioOverLoad'
p33
I1
sS'gpioSPIvalue'
p34
I6
sS'dcI'
p35
I-3
sS'numDmaOverflows'
p36
I0
sS'iqImbalanceGaindB'
p37
I0
sS'iqImbalancePhaseDeg'
p38
I0
sS'agcGain'
p39
I36
sS'agcMaxVal'
p40
I700
sS'dcQ'
p41
I2
ssS'timeStampHealthCheck'
p42
F673424.063956
ss.